; Function Attrs: nounwind uwtable
define internal fastcc noundef ptr @_readRowExpr() unnamed_addr #0 {
  %1 = alloca i32, align 4
  %2 = tail call noundef ptr @palloc0(i64 noundef 40) #10
  store i32 36, ptr %2, align 4
  call void @llvm.lifetime.start.p0(i64 4, ptr nonnull %1) #10
  %3 = call ptr @pg_strtok(ptr noundef nonnull %1) #10
  %4 = call ptr @nodeRead(ptr noundef null, i32 noundef 0) #10
  %5 = getelementptr inbounds nuw i8, ptr %2, i64 8
  store ptr %4, ptr %5, align 8
  %6 = call ptr @pg_strtok(ptr noundef nonnull %1) #10
  %7 = call ptr @pg_strtok(ptr noundef nonnull %1) #10
  %8 = call i64 @strtoul(ptr noundef captures(none) %7, ptr noundef null, i32 noundef 10) #10
  %9 = trunc i64 %8 to i32
  %10 = getelementptr inbounds nuw i8, ptr %2, i64 16
  store i32 %9, ptr %10, align 8
  %11 = call ptr @pg_strtok(ptr noundef nonnull %1) #10
  %12 = call ptr @pg_strtok(ptr noundef nonnull %1) #10
  %13 = call i64 @strtol(ptr noundef nonnull captures(none) %12, ptr noundef null, i32 noundef 10) #10
  %14 = trunc i64 %13 to i32
  %15 = getelementptr inbounds nuw i8, ptr %2, i64 20
  store i32 %14, ptr %15, align 4
  %16 = call ptr @pg_strtok(ptr noundef nonnull %1) #10
  %17 = call ptr @nodeRead(ptr noundef null, i32 noundef 0) #10
  %18 = getelementptr inbounds nuw i8, ptr %2, i64 24
  store ptr %17, ptr %18, align 8
  %19 = call ptr @pg_strtok(ptr noundef nonnull %1) #10
  %20 = call ptr @pg_strtok(ptr noundef nonnull %1) #10
  %21 = getelementptr inbounds nuw i8, ptr %2, i64 32
  store i32 -1, ptr %21, align 8
  call void @llvm.lifetime.end.p0(i64 4, ptr nonnull %1) #10
  ret ptr %2
}